; Function Attrs: mustprogress nounwind uwtable
define internal fastcc void @_ZNSt6vectorIN12_GLOBAL__N_112_GLOBAL__N_113expand_rule_tESaIS2_EED2Ev(ptr noundef nonnull readonly align 8 captures(none) dereferenceable(24) %0) unnamed_addr #3 align 2 personality ptr @__gxx_personality_v0 {
  %2 = load ptr, ptr %0, align 8, !tbaa !541
  %3 = getelementptr inbounds nuw i8, ptr %0, i64 8
  %4 = load ptr, ptr %3, align 8, !tbaa !537
  %.not4.i.i.i = icmp eq ptr %2, %4
  br i1 %.not4.i.i.i, label %_ZSt8_DestroyIPN12_GLOBAL__N_112_GLOBAL__N_113expand_rule_tES2_EvT_S4_RSaIT0_E.exit, label %.lr.ph.i.i.i

.lr.ph.i.i.i:                                     ; preds = %1, %_ZSt8_DestroyIN12_GLOBAL__N_112_GLOBAL__N_113expand_rule_tEEvPT_.exit.i.i.i
  %.05.i.i.i = phi ptr [ %17, %_ZSt8_DestroyIN12_GLOBAL__N_112_GLOBAL__N_113expand_rule_tEEvPT_.exit.i.i.i ], [ %2, %1 ]
  %5 = getelementptr inbounds nuw i8, ptr %.05.i.i.i, i64 56
  %6 = getelementptr inbounds nuw i8, ptr %.05.i.i.i, i64 72
  %7 = load ptr, ptr %6, align 8, !tbaa !520
  invoke void @_ZNSt8_Rb_treeIN5Yosys5RTLIL8IdStringES2_St9_IdentityIS2_ESt4lessIS2_ESaIS2_EE8_M_eraseEPSt13_Rb_tree_nodeIS2_E(ptr noundef nonnull align 8 dereferenceable(48) %5, ptr noundef %7)
          to label %_ZNSt3setIN5Yosys5RTLIL8IdStringESt4lessIS2_ESaIS2_EED2Ev.exit.i.i.i.i.i unwind label %8

8:                                                ; preds = %.lr.ph.i.i.i
  %9 = landingpad { ptr, i32 }
          catch ptr null
  %10 = extractvalue { ptr, i32 } %9, 0
  tail call void @__clang_call_terminate(ptr %10) #33
  unreachable

_ZNSt3setIN5Yosys5RTLIL8IdStringESt4lessIS2_ESaIS2_EED2Ev.exit.i.i.i.i.i: ; preds = %.lr.ph.i.i.i
  %11 = getelementptr inbounds nuw i8, ptr %.05.i.i.i, i64 8
  %12 = getelementptr inbounds nuw i8, ptr %.05.i.i.i, i64 24
  %13 = load ptr, ptr %12, align 8, !tbaa !520
  invoke void @_ZNSt8_Rb_treeIN5Yosys5RTLIL8IdStringES2_St9_IdentityIS2_ESt4lessIS2_ESaIS2_EE8_M_eraseEPSt13_Rb_tree_nodeIS2_E(ptr noundef nonnull align 8 dereferenceable(48) %11, ptr noundef %13)
          to label %_ZSt8_DestroyIN12_GLOBAL__N_112_GLOBAL__N_113expand_rule_tEEvPT_.exit.i.i.i unwind label %14

14:                                               ; preds = %_ZNSt3setIN5Yosys5RTLIL8IdStringESt4lessIS2_ESaIS2_EED2Ev.exit.i.i.i.i.i
  %15 = landingpad { ptr, i32 }
          catch ptr null
  %16 = extractvalue { ptr, i32 } %15, 0
  tail call void @__clang_call_terminate(ptr %16) #33
  unreachable

_ZSt8_DestroyIN12_GLOBAL__N_112_GLOBAL__N_113expand_rule_tEEvPT_.exit.i.i.i: ; preds = %_ZNSt3setIN5Yosys5RTLIL8IdStringESt4lessIS2_ESaIS2_EED2Ev.exit.i.i.i.i.i
  %17 = getelementptr inbounds nuw i8, ptr %.05.i.i.i, i64 104
  %.not.i.i.i = icmp eq ptr %17, %4
  br i1 %.not.i.i.i, label %_ZSt8_DestroyIPN12_GLOBAL__N_112_GLOBAL__N_113expand_rule_tES2_EvT_S4_RSaIT0_E.exitthread-pre-split, label %.lr.ph.i.i.i, !llvm.loop !571

_ZSt8_DestroyIPN12_GLOBAL__N_112_GLOBAL__N_113expand_rule_tES2_EvT_S4_RSaIT0_E.exitthread-pre-split: ; preds = %_ZSt8_DestroyIN12_GLOBAL__N_112_GLOBAL__N_113expand_rule_tEEvPT_.exit.i.i.i
  %.val.pr = load ptr, ptr %0, align 8, !tbaa !541
  br label %_ZSt8_DestroyIPN12_GLOBAL__N_112_GLOBAL__N_113expand_rule_tES2_EvT_S4_RSaIT0_E.exit

_ZSt8_DestroyIPN12_GLOBAL__N_112_GLOBAL__N_113expand_rule_tES2_EvT_S4_RSaIT0_E.exit: ; preds = %_ZSt8_DestroyIPN12_GLOBAL__N_112_GLOBAL__N_113expand_rule_tES2_EvT_S4_RSaIT0_E.exitthread-pre-split, %1
  %.val = phi ptr [ %.val.pr, %_ZSt8_DestroyIPN12_GLOBAL__N_112_GLOBAL__N_113expand_rule_tES2_EvT_S4_RSaIT0_E.exitthread-pre-split ], [ %2, %1 ]
  %.not.i.i = icmp eq ptr %.val, null
  br i1 %.not.i.i, label %_ZNSt12_Vector_baseIN12_GLOBAL__N_112_GLOBAL__N_113expand_rule_tESaIS2_EED2Ev.exit, label %18

18:                                               ; preds = %_ZSt8_DestroyIPN12_GLOBAL__N_112_GLOBAL__N_113expand_rule_tES2_EvT_S4_RSaIT0_E.exit
  %19 = getelementptr inbounds nuw i8, ptr %0, i64 16
  %.val1 = load ptr, ptr %19, align 8, !tbaa !540
  %20 = ptrtoint ptr %.val1 to i64
  %21 = ptrtoint ptr %.val to i64
  %22 = sub i64 %20, %21
  tail call void @_ZdlPvm(ptr noundef nonnull %.val, i64 noundef %22) #31
  br label %_ZNSt12_Vector_baseIN12_GLOBAL__N_112_GLOBAL__N_113expand_rule_tESaIS2_EED2Ev.exit

_ZNSt12_Vector_baseIN12_GLOBAL__N_112_GLOBAL__N_113expand_rule_tESaIS2_EED2Ev.exit: ; preds = %_ZSt8_DestroyIPN12_GLOBAL__N_112_GLOBAL__N_113expand_rule_tES2_EvT_S4_RSaIT0_E.exit, %18
  ret void
}